target datalayout = "e-m:e-p270:32:32-p271:32:32-p272:64:64-i64:64-i128:128-f80:128-n8:16:32:64-S128"
target triple = "x86_64-pc-linux-gnu"

%struct.AVFormatContext = type { ptr, ptr, ptr, ptr, ptr, i32, i32, ptr, i32, ptr, i32, ptr, ptr, i64, i64, i64, i32, i32, i32, i64, i64, ptr, i32, i32, ptr, i32, i32, i32, i32, ptr, i64, i32, i32, %struct.AVIOInterruptCB, i32, i32, i32, i32, i64, i32, i32, i32, i32, i32, i32, i32, i32, i32, i32, i32, i32, i64, i32, i32, i32, i32, i32, ptr, ptr, ptr, ptr, i32, ptr, ptr, ptr, ptr, i32, ptr, ptr, i64, ptr, ptr, ptr, i64 }
%struct.AVIOInterruptCB = type { ptr, ptr }
%struct.ASFContext = type { i32, i32, i32, i64, i64, i32, i64, i32, i32, i32, i64, i64, i64, i64, i64, i64, i32, [128 x ptr], [128 x %struct.ASFStreamData], i32, i32, i64, i64, i8, i32, i64, i32, i32, i64, i32, i16, i64, i32, i32 }
%struct.ASFStreamData = type { [32 x i8], ptr, %struct.AVRational }
%struct.AVRational = type { i32, i32 }

; Function Attrs: alwaysinline nounwind uwtable
define internal i64 @avio_tell(ptr noundef %0) #1 {
  %2 = alloca ptr, align 8
  store ptr %0, ptr %2, align 8, !tbaa !33
  %3 = load ptr, ptr %2, align 8, !tbaa !33
  %4 = call i64 @avio_seek(ptr noundef %3, i64 noundef 0, i32 noundef 1)
  ret i64 %4
}

; Function Attrs: nounwind uwtable
define internal void @align_position(ptr noundef %0, i64 noundef %1, i64 noundef %2) #0 {
  %4 = alloca ptr, align 8
  %5 = alloca i64, align 8
  %6 = alloca i64, align 8
  store ptr %0, ptr %4, align 8, !tbaa !33
  store i64 %1, ptr %5, align 8, !tbaa !47
  store i64 %2, ptr %6, align 8, !tbaa !47
  %7 = load i64, ptr %6, align 8, !tbaa !47
  %8 = load i64, ptr %5, align 8, !tbaa !47
  %9 = sub nsw i64 9223372036854775807, %8
  %10 = icmp ult i64 %7, %9
  br i1 %10, label %11, label %24

11:                                               ; preds = %3
  %12 = load ptr, ptr %4, align 8, !tbaa !33
  %13 = call i64 @avio_tell(ptr noundef %12)
  %14 = load i64, ptr %5, align 8, !tbaa !47
  %15 = load i64, ptr %6, align 8, !tbaa !47
  %16 = add i64 %14, %15
  %17 = icmp ne i64 %13, %16
  br i1 %17, label %18, label %24

18:                                               ; preds = %11
  %19 = load ptr, ptr %4, align 8, !tbaa !33
  %20 = load i64, ptr %5, align 8, !tbaa !47
  %21 = load i64, ptr %6, align 8, !tbaa !47
  %22 = add i64 %20, %21
  %23 = call i64 @avio_seek(ptr noundef %19, i64 noundef %22, i32 noundef 0)
  br label %24

24:                                               ; preds = %18, %11, %3
  ret void
}

; Function Attrs: nounwind uwtable
define internal i32 @asf_read_ext_content(ptr noundef %0, ptr noundef %1) #0 {
  %3 = alloca i32, align 4
  %4 = alloca ptr, align 8
  %5 = alloca ptr, align 8
  %6 = alloca ptr, align 8
  %7 = alloca ptr, align 8
  %8 = alloca i64, align 8
  %9 = alloca i16, align 2
  %10 = alloca i32, align 4
  %11 = alloca i32, align 4
  %12 = alloca i16, align 2
  %13 = alloca i16, align 2
  %14 = alloca i16, align 2
  %15 = alloca ptr, align 8
  %16 = alloca i32, align 4
  store ptr %0, ptr %4, align 8, !tbaa !13
  store ptr %1, ptr %5, align 8, !tbaa !34
  call void @llvm.lifetime.start.p0(i64 8, ptr %6) #10
  %17 = load ptr, ptr %4, align 8, !tbaa !13
  %18 = getelementptr inbounds nuw %struct.AVFormatContext, ptr %17, i32 0, i32 3
  %19 = load ptr, ptr %18, align 8, !tbaa !15
  store ptr %19, ptr %6, align 8, !tbaa !30
  call void @llvm.lifetime.start.p0(i64 8, ptr %7) #10
  %20 = load ptr, ptr %4, align 8, !tbaa !13
  %21 = getelementptr inbounds nuw %struct.AVFormatContext, ptr %20, i32 0, i32 4
  %22 = load ptr, ptr %21, align 8, !tbaa !32
  store ptr %22, ptr %7, align 8, !tbaa !33
  call void @llvm.lifetime.start.p0(i64 8, ptr %8) #10
  %23 = load ptr, ptr %7, align 8, !tbaa !33
  %24 = call i64 @avio_rl64(ptr noundef %23)
  store i64 %24, ptr %8, align 8, !tbaa !47
  call void @llvm.lifetime.start.p0(i64 2, ptr %9) #10
  %25 = load ptr, ptr %7, align 8, !tbaa !33
  %26 = call i32 @avio_rl16(ptr noundef %25)
  %27 = trunc i32 %26 to i16
  store i16 %27, ptr %9, align 2, !tbaa !132
  call void @llvm.lifetime.start.p0(i64 4, ptr %10) #10
  call void @llvm.lifetime.start.p0(i64 4, ptr %11) #10
  store i32 0, ptr %10, align 4, !tbaa !42
  br label %28

28:                                               ; preds = %82, %2
  %29 = load i32, ptr %10, align 4, !tbaa !42
  %30 = load i16, ptr %9, align 2, !tbaa !132
  %31 = zext i16 %30 to i32
  %32 = icmp slt i32 %29, %31
  br i1 %32, label %33, label %85

33:                                               ; preds = %28
  call void @llvm.lifetime.start.p0(i64 2, ptr %12) #10
  call void @llvm.lifetime.start.p0(i64 2, ptr %13) #10
  call void @llvm.lifetime.start.p0(i64 2, ptr %14) #10
  call void @llvm.lifetime.start.p0(i64 8, ptr %15) #10
  store ptr null, ptr %15, align 8, !tbaa !59
  %34 = load ptr, ptr %7, align 8, !tbaa !33
  %35 = call i32 @avio_rl16(ptr noundef %34)
  %36 = trunc i32 %35 to i16
  store i16 %36, ptr %12, align 2, !tbaa !132
  %37 = load i16, ptr %12, align 2, !tbaa !132
  %38 = icmp ne i16 %37, 0
  br i1 %38, label %40, label %39

39:                                               ; preds = %33
  store i32 -1094995529, ptr %3, align 4
  store i32 1, ptr %16, align 4
  br label %79

40:                                               ; preds = %33
  %41 = load i16, ptr %12, align 2, !tbaa !132
  %42 = zext i16 %41 to i64
  %43 = call noalias ptr @av_malloc(i64 noundef %42)
  store ptr %43, ptr %15, align 8, !tbaa !59
  %44 = load ptr, ptr %15, align 8, !tbaa !59
  %45 = icmp ne ptr %44, null
  br i1 %45, label %47, label %46

46:                                               ; preds = %40
  store i32 -12, ptr %3, align 4
  store i32 1, ptr %16, align 4
  br label %79

47:                                               ; preds = %40
  %48 = load ptr, ptr %7, align 8, !tbaa !33
  %49 = load i16, ptr %12, align 2, !tbaa !132
  %50 = zext i16 %49 to i32
  %51 = load ptr, ptr %15, align 8, !tbaa !59
  %52 = load i16, ptr %12, align 2, !tbaa !132
  %53 = zext i16 %52 to i32
  %54 = call i32 @avio_get_str16le(ptr noundef %48, i32 noundef %50, ptr noundef %51, i32 noundef %53)
  %55 = load ptr, ptr %7, align 8, !tbaa !33
  %56 = call i32 @avio_rl16(ptr noundef %55)
  %57 = trunc i32 %56 to i16
  store i16 %57, ptr %13, align 2, !tbaa !132
  %58 = load i16, ptr %13, align 2, !tbaa !132
  %59 = zext i16 %58 to i32
  %60 = icmp eq i32 %59, 2
  br i1 %60, label %61, label %62

61:                                               ; preds = %47
  store i16 3, ptr %13, align 2, !tbaa !132
  br label %62

62:                                               ; preds = %61, %47
  %63 = load ptr, ptr %7, align 8, !tbaa !33
  %64 = call i32 @avio_rl16(ptr noundef %63)
  %65 = trunc i32 %64 to i16
  store i16 %65, ptr %14, align 2, !tbaa !132
  %66 = load ptr, ptr %4, align 8, !tbaa !13
  %67 = load ptr, ptr %15, align 8, !tbaa !59
  %68 = load i16, ptr %12, align 2, !tbaa !132
  %69 = load i16, ptr %14, align 2, !tbaa !132
  %70 = load i16, ptr %13, align 2, !tbaa !132
  %71 = load ptr, ptr %4, align 8, !tbaa !13
  %72 = getelementptr inbounds nuw %struct.AVFormatContext, ptr %71, i32 0, i32 29
  %73 = call i32 @process_metadata(ptr noundef %66, ptr noundef %67, i16 noundef zeroext %68, i16 noundef zeroext %69, i16 noundef zeroext %70, ptr noundef %72)
  store i32 %73, ptr %11, align 4, !tbaa !42
  call void @av_freep(ptr noundef %15)
  %74 = load i32, ptr %11, align 4, !tbaa !42
  %75 = icmp slt i32 %74, 0
  br i1 %75, label %76, label %78

76:                                               ; preds = %62
  %77 = load i32, ptr %11, align 4, !tbaa !42
  store i32 %77, ptr %3, align 4
  store i32 1, ptr %16, align 4
  br label %79

78:                                               ; preds = %62
  store i32 0, ptr %16, align 4
  br label %79

79:                                               ; preds = %78, %76, %46, %39
  call void @llvm.lifetime.end.p0(i64 8, ptr %15) #10
  call void @llvm.lifetime.end.p0(i64 2, ptr %14) #10
  call void @llvm.lifetime.end.p0(i64 2, ptr %13) #10
  call void @llvm.lifetime.end.p0(i64 2, ptr %12) #10
  %80 = load i32, ptr %16, align 4
  switch i32 %80, label %91 [
    i32 0, label %81
  ]

81:                                               ; preds = %79
  br label %82

82:                                               ; preds = %81
  %83 = load i32, ptr %10, align 4, !tbaa !42
  %84 = add nsw i32 %83, 1
  store i32 %84, ptr %10, align 4, !tbaa !42
  br label %28, !llvm.loop !145

85:                                               ; preds = %28
  %86 = load ptr, ptr %7, align 8, !tbaa !33
  %87 = load ptr, ptr %6, align 8, !tbaa !30
  %88 = getelementptr inbounds nuw %struct.ASFContext, ptr %87, i32 0, i32 12
  %89 = load i64, ptr %88, align 8, !tbaa !41
  %90 = load i64, ptr %8, align 8, !tbaa !47
  call void @align_position(ptr noundef %86, i64 noundef %89, i64 noundef %90)
  store i32 0, ptr %3, align 4
  store i32 1, ptr %16, align 4
  br label %91

91:                                               ; preds = %85, %79
  call void @llvm.lifetime.end.p0(i64 4, ptr %11) #10
  call void @llvm.lifetime.end.p0(i64 4, ptr %10) #10
  call void @llvm.lifetime.end.p0(i64 2, ptr %9) #10
  call void @llvm.lifetime.end.p0(i64 8, ptr %8) #10
  call void @llvm.lifetime.end.p0(i64 8, ptr %7) #10
  call void @llvm.lifetime.end.p0(i64 8, ptr %6) #10
  %92 = load i32, ptr %3, align 4
  ret i32 %92
}