; Function Attrs: nounwind uwtable
define internal range(i32 -1094995529, 1) i32 @asf_read_ext_content(ptr noundef %0, ptr readnone captures(none) %1) #1 {
  %3 = alloca ptr, align 8
  %4 = getelementptr inbounds nuw i8, ptr %0, i64 24
  %5 = load ptr, ptr %4, align 8, !tbaa !11
  %6 = getelementptr inbounds nuw i8, ptr %0, i64 32
  %7 = load ptr, ptr %6, align 8, !tbaa !26
  %8 = tail call i64 @avio_rl64(ptr noundef %7) #12
  %9 = tail call i32 @avio_rl16(ptr noundef %7) #12
  %10 = and i32 %9, 65535
  %.not37 = icmp eq i32 %10, 0
  br i1 %.not37, label %._crit_edge, label %.lr.ph

.lr.ph:                                           ; preds = %2
  %11 = getelementptr inbounds nuw i8, ptr %0, i64 192
  br label %14

12:                                               ; preds = %20
  %13 = add nuw nsw i32 %.02835, 1
  %exitcond.not = icmp eq i32 %13, %10
  br i1 %exitcond.not, label %._crit_edge, label %14, !llvm.loop !148

14:                                               ; preds = %.lr.ph, %12
  %.02835 = phi i32 [ 0, %.lr.ph ], [ %13, %12 ]
  call void @llvm.lifetime.start.p0(i64 8, ptr nonnull %3) #12
  store ptr null, ptr %3, align 8, !tbaa !146
  %15 = call i32 @avio_rl16(ptr noundef %7) #12
  %16 = and i32 %15, 65535
  %.not = icmp eq i32 %16, 0
  br i1 %.not, label %.thread, label %17

17:                                               ; preds = %14
  %.mask = and i32 %15, 65535
  %18 = zext nneg i32 %.mask to i64
  %19 = call noalias ptr @av_malloc(i64 noundef %18) #12
  store ptr %19, ptr %3, align 8, !tbaa !146
  %.not32 = icmp eq ptr %19, null
  br i1 %.not32, label %.thread, label %20

.thread:                                          ; preds = %14, %17
  %.1.ph = phi i32 [ -12, %17 ], [ -1094995529, %14 ]
  call void @llvm.lifetime.end.p0(i64 8, ptr nonnull %3) #12
  br label %align_position.exit

20:                                               ; preds = %17
  %21 = call i32 @avio_get_str16le(ptr noundef %7, i32 noundef %.mask, ptr noundef nonnull %19, i32 noundef %.mask) #12
  %22 = call i32 @avio_rl16(ptr noundef %7) #12
  %23 = trunc i32 %22 to i16
  %24 = and i32 %22, 65535
  %25 = icmp eq i32 %24, 2
  %spec.store.select = select i1 %25, i16 3, i16 %23
  %26 = call i32 @avio_rl16(ptr noundef %7) #12
  %27 = trunc i32 %26 to i16
  %28 = load ptr, ptr %3, align 8, !tbaa !146
  %29 = call fastcc i32 @process_metadata(ptr noundef nonnull %0, ptr noundef %28, i16 noundef zeroext %27, i16 noundef zeroext %spec.store.select, ptr noundef nonnull %11)
  call void @av_freep(ptr noundef nonnull %3) #12
  %30 = icmp sgt i32 %29, -1
  call void @llvm.lifetime.end.p0(i64 8, ptr nonnull %3) #12
  br i1 %30, label %12, label %align_position.exit

._crit_edge:                                      ; preds = %12, %2
  %31 = getelementptr inbounds nuw i8, ptr %5, i64 80
  %32 = load i64, ptr %31, align 8, !tbaa !32
  %33 = sub nsw i64 9223372036854775807, %32
  %34 = icmp ult i64 %8, %33
  br i1 %34, label %35, label %align_position.exit

35:                                               ; preds = %._crit_edge
  %36 = call i64 @avio_seek(ptr noundef %7, i64 noundef 0, i32 noundef 1) #12
  %37 = add i64 %32, %8
  %.not.i = icmp eq i64 %36, %37
  br i1 %.not.i, label %align_position.exit, label %38

38:                                               ; preds = %35
  %39 = call i64 @avio_seek(ptr noundef %7, i64 noundef %37, i32 noundef 0) #12
  br label %align_position.exit

align_position.exit:                              ; preds = %20, %38, %35, %._crit_edge, %.thread
  %.2 = phi i32 [ %.1.ph, %.thread ], [ 0, %._crit_edge ], [ 0, %35 ], [ 0, %38 ], [ %29, %20 ]
  ret i32 %.2
}